target datalayout = "e-m:e-p270:32:32-p271:32:32-p272:64:64-i64:64-i128:128-f80:128-n8:16:32:64-S128"
target triple = "x86_64-pc-linux-gnu"

%struct.UCharIterator = type { ptr, i32, i32, i32, i32, i32, ptr, ptr, ptr, ptr, ptr, ptr, ptr, ptr, ptr, ptr }

; Function Attrs: mustprogress uwtable
define internal noundef i32 @_ZL20utf8IteratorPreviousP13UCharIterator(ptr noundef %0) #0 {
  %2 = alloca i32, align 4
  %3 = alloca ptr, align 8
  %4 = alloca i32, align 4
  %5 = alloca i16, align 2
  %6 = alloca i32, align 4
  %7 = alloca ptr, align 8
  %8 = alloca i32, align 4
  store ptr %0, ptr %3, align 8, !tbaa !3
  call void @llvm.lifetime.start.p0(i64 4, ptr %4) #8
  %9 = load ptr, ptr %3, align 8, !tbaa !3
  %10 = getelementptr inbounds nuw %struct.UCharIterator, ptr %9, i32 0, i32 5
  %11 = load i32, ptr %10, align 8, !tbaa !51
  %12 = icmp ne i32 %11, 0
  br i1 %12, label %13, label %38

13:                                               ; preds = %1
  call void @llvm.lifetime.start.p0(i64 2, ptr %5) #8
  %14 = load ptr, ptr %3, align 8, !tbaa !3
  %15 = getelementptr inbounds nuw %struct.UCharIterator, ptr %14, i32 0, i32 5
  %16 = load i32, ptr %15, align 8, !tbaa !51
  %17 = ashr i32 %16, 10
  %18 = add nsw i32 %17, 55232
  %19 = trunc i32 %18 to i16
  store i16 %19, ptr %5, align 2, !tbaa !41
  %20 = load ptr, ptr %3, align 8, !tbaa !3
  %21 = getelementptr inbounds nuw %struct.UCharIterator, ptr %20, i32 0, i32 5
  store i32 0, ptr %21, align 8, !tbaa !51
  %22 = load ptr, ptr %3, align 8, !tbaa !3
  %23 = getelementptr inbounds nuw %struct.UCharIterator, ptr %22, i32 0, i32 2
  %24 = load i32, ptr %23, align 4, !tbaa !39
  %25 = sub nsw i32 %24, 4
  store i32 %25, ptr %23, align 4, !tbaa !39
  %26 = load ptr, ptr %3, align 8, !tbaa !3
  %27 = getelementptr inbounds nuw %struct.UCharIterator, ptr %26, i32 0, i32 3
  %28 = load i32, ptr %27, align 8, !tbaa !40
  store i32 %28, ptr %4, align 4, !tbaa !10
  %29 = icmp sgt i32 %28, 0
  br i1 %29, label %30, label %35

30:                                               ; preds = %13
  %31 = load i32, ptr %4, align 4, !tbaa !10
  %32 = sub nsw i32 %31, 1
  %33 = load ptr, ptr %3, align 8, !tbaa !3
  %34 = getelementptr inbounds nuw %struct.UCharIterator, ptr %33, i32 0, i32 3
  store i32 %32, ptr %34, align 8, !tbaa !40
  br label %35

35:                                               ; preds = %30, %13
  %36 = load i16, ptr %5, align 2, !tbaa !41
  %37 = zext i16 %36 to i32
  store i32 %37, ptr %2, align 4
  store i32 1, ptr %6, align 4
  call void @llvm.lifetime.end.p0(i64 2, ptr %5) #8
  br label %120

38:                                               ; preds = %1
  %39 = load ptr, ptr %3, align 8, !tbaa !3
  %40 = getelementptr inbounds nuw %struct.UCharIterator, ptr %39, i32 0, i32 2
  %41 = load i32, ptr %40, align 4, !tbaa !39
  %42 = icmp sgt i32 %41, 0
  br i1 %42, label %43, label %119

43:                                               ; preds = %38
  call void @llvm.lifetime.start.p0(i64 8, ptr %7) #8
  %44 = load ptr, ptr %3, align 8, !tbaa !3
  %45 = getelementptr inbounds nuw %struct.UCharIterator, ptr %44, i32 0, i32 0
  %46 = load ptr, ptr %45, align 8, !tbaa !14
  store ptr %46, ptr %7, align 8, !tbaa !18
  call void @llvm.lifetime.start.p0(i64 4, ptr %8) #8
  br label %47

47:                                               ; preds = %43
  %48 = load ptr, ptr %7, align 8, !tbaa !18
  %49 = load ptr, ptr %3, align 8, !tbaa !3
  %50 = getelementptr inbounds nuw %struct.UCharIterator, ptr %49, i32 0, i32 2
  %51 = load i32, ptr %50, align 4, !tbaa !39
  %52 = add nsw i32 %51, -1
  store i32 %52, ptr %50, align 4, !tbaa !39
  %53 = sext i32 %52 to i64
  %54 = getelementptr inbounds i8, ptr %48, i64 %53
  %55 = load i8, ptr %54, align 1, !tbaa !20
  %56 = zext i8 %55 to i32
  store i32 %56, ptr %8, align 4, !tbaa !10
  %57 = load i32, ptr %8, align 4, !tbaa !10
  %58 = and i32 %57, 128
  %59 = icmp eq i32 %58, 0
  br i1 %59, label %66, label %60

60:                                               ; preds = %47
  %61 = load ptr, ptr %7, align 8, !tbaa !18
  %62 = load ptr, ptr %3, align 8, !tbaa !3
  %63 = getelementptr inbounds nuw %struct.UCharIterator, ptr %62, i32 0, i32 2
  %64 = load i32, ptr %8, align 4, !tbaa !10
  %65 = call i32 @utf8_prevCharSafeBody_77(ptr noundef %61, i32 noundef 0, ptr noundef %63, i32 noundef %64, i8 noundef signext -3)
  store i32 %65, ptr %8, align 4, !tbaa !10
  br label %66

66:                                               ; preds = %60, %47
  br label %67

67:                                               ; preds = %66
  br label %68

68:                                               ; preds = %67
  %69 = load ptr, ptr %3, align 8, !tbaa !3
  %70 = getelementptr inbounds nuw %struct.UCharIterator, ptr %69, i32 0, i32 3
  %71 = load i32, ptr %70, align 8, !tbaa !40
  store i32 %71, ptr %4, align 4, !tbaa !10
  %72 = icmp sgt i32 %71, 0
  br i1 %72, label %73, label %78

73:                                               ; preds = %68
  %74 = load i32, ptr %4, align 4, !tbaa !10
  %75 = sub nsw i32 %74, 1
  %76 = load ptr, ptr %3, align 8, !tbaa !3
  %77 = getelementptr inbounds nuw %struct.UCharIterator, ptr %76, i32 0, i32 3
  store i32 %75, ptr %77, align 8, !tbaa !40
  br label %100

78:                                               ; preds = %68
  %79 = load ptr, ptr %3, align 8, !tbaa !3
  %80 = getelementptr inbounds nuw %struct.UCharIterator, ptr %79, i32 0, i32 2
  %81 = load i32, ptr %80, align 4, !tbaa !39
  %82 = icmp sle i32 %81, 1
  br i1 %82, label %83, label %99

83:                                               ; preds = %78
  %84 = load i32, ptr %8, align 4, !tbaa !10
  %85 = icmp sle i32 %84, 65535
  br i1 %85, label %86, label %90

86:                                               ; preds = %83
  %87 = load ptr, ptr %3, align 8, !tbaa !3
  %88 = getelementptr inbounds nuw %struct.UCharIterator, ptr %87, i32 0, i32 2
  %89 = load i32, ptr %88, align 4, !tbaa !39
  br label %95

90:                                               ; preds = %83
  %91 = load ptr, ptr %3, align 8, !tbaa !3
  %92 = getelementptr inbounds nuw %struct.UCharIterator, ptr %91, i32 0, i32 2
  %93 = load i32, ptr %92, align 4, !tbaa !39
  %94 = add nsw i32 %93, 1
  br label %95

95:                                               ; preds = %90, %86
  %96 = phi i32 [ %89, %86 ], [ %94, %90 ]
  %97 = load ptr, ptr %3, align 8, !tbaa !3
  %98 = getelementptr inbounds nuw %struct.UCharIterator, ptr %97, i32 0, i32 3
  store i32 %96, ptr %98, align 8, !tbaa !40
  br label %99

99:                                               ; preds = %95, %78
  br label %100

100:                                              ; preds = %99, %73
  %101 = load i32, ptr %8, align 4, !tbaa !10
  %102 = icmp sle i32 %101, 65535
  br i1 %102, label %103, label %105

103:                                              ; preds = %100
  %104 = load i32, ptr %8, align 4, !tbaa !10
  store i32 %104, ptr %2, align 4
  store i32 1, ptr %6, align 4
  br label %118

105:                                              ; preds = %100
  %106 = load ptr, ptr %3, align 8, !tbaa !3
  %107 = getelementptr inbounds nuw %struct.UCharIterator, ptr %106, i32 0, i32 2
  %108 = load i32, ptr %107, align 4, !tbaa !39
  %109 = add nsw i32 %108, 4
  store i32 %109, ptr %107, align 4, !tbaa !39
  %110 = load i32, ptr %8, align 4, !tbaa !10
  %111 = load ptr, ptr %3, align 8, !tbaa !3
  %112 = getelementptr inbounds nuw %struct.UCharIterator, ptr %111, i32 0, i32 5
  store i32 %110, ptr %112, align 8, !tbaa !51
  %113 = load i32, ptr %8, align 4, !tbaa !10
  %114 = and i32 %113, 1023
  %115 = or i32 %114, 56320
  %116 = trunc i32 %115 to i16
  %117 = zext i16 %116 to i32
  store i32 %117, ptr %2, align 4
  store i32 1, ptr %6, align 4
  br label %118

118:                                              ; preds = %105, %103
  call void @llvm.lifetime.end.p0(i64 4, ptr %8) #8
  call void @llvm.lifetime.end.p0(i64 8, ptr %7) #8
  br label %120

119:                                              ; preds = %38
  store i32 -1, ptr %2, align 4
  store i32 1, ptr %6, align 4
  br label %120

120:                                              ; preds = %119, %118, %35
  call void @llvm.lifetime.end.p0(i64 4, ptr %4) #8
  %121 = load i32, ptr %2, align 4
  ret i32 %121
}