; Function Attrs: mustprogress uwtable
define internal noundef range(i32 -2147483648, 65536) i32 @_ZL20utf8IteratorPreviousP13UCharIterator(ptr noundef %0) #0 {
  %2 = getelementptr inbounds nuw i8, ptr %0, i64 24
  %3 = load i32, ptr %2, align 8, !tbaa !39
  %.not = icmp eq i32 %3, 0
  br i1 %.not, label %17, label %4

4:                                                ; preds = %1
  %5 = lshr i32 %3, 10
  %6 = add nuw nsw i32 %5, 55232
  store i32 0, ptr %2, align 8, !tbaa !39
  %7 = getelementptr inbounds nuw i8, ptr %0, i64 12
  %8 = load i32, ptr %7, align 4, !tbaa !27
  %9 = add nsw i32 %8, -4
  store i32 %9, ptr %7, align 4, !tbaa !27
  %10 = getelementptr inbounds nuw i8, ptr %0, i64 16
  %11 = load i32, ptr %10, align 8, !tbaa !28
  %12 = icmp sgt i32 %11, 0
  br i1 %12, label %13, label %15

13:                                               ; preds = %4
  %14 = add nsw i32 %11, -1
  store i32 %14, ptr %10, align 8, !tbaa !28
  br label %15

15:                                               ; preds = %13, %4
  %16 = and i32 %6, 65535
  br label %51

17:                                               ; preds = %1
  %18 = getelementptr inbounds nuw i8, ptr %0, i64 12
  %19 = load i32, ptr %18, align 4, !tbaa !27
  %20 = icmp sgt i32 %19, 0
  br i1 %20, label %21, label %51

21:                                               ; preds = %17
  %22 = load ptr, ptr %0, align 8, !tbaa !10
  %23 = add nsw i32 %19, -1
  store i32 %23, ptr %18, align 4, !tbaa !27
  %24 = zext nneg i32 %23 to i64
  %25 = getelementptr inbounds nuw i8, ptr %22, i64 %24
  %26 = load i8, ptr %25, align 1, !tbaa !14
  %27 = zext i8 %26 to i32
  %28 = icmp sgt i8 %26, -1
  br i1 %28, label %31, label %29

29:                                               ; preds = %21
  %30 = tail call i32 @utf8_prevCharSafeBody_77(ptr noundef nonnull %22, i32 noundef 0, ptr noundef nonnull %18, i32 noundef %27, i8 noundef signext -3)
  br label %31

31:                                               ; preds = %29, %21
  %.0 = phi i32 [ %27, %21 ], [ %30, %29 ]
  %32 = getelementptr inbounds nuw i8, ptr %0, i64 16
  %33 = load i32, ptr %32, align 8, !tbaa !28
  %34 = icmp sgt i32 %33, 0
  br i1 %34, label %35, label %37

35:                                               ; preds = %31
  %36 = add nsw i32 %33, -1
  br label %.sink.split

37:                                               ; preds = %31
  %38 = load i32, ptr %18, align 4, !tbaa !27
  %39 = icmp slt i32 %38, 2
  br i1 %39, label %40, label %44

40:                                               ; preds = %37
  %41 = icmp sgt i32 %.0, 65535
  %42 = zext i1 %41 to i32
  %43 = add nsw i32 %38, %42
  br label %.sink.split

.sink.split:                                      ; preds = %35, %40
  %.sink = phi i32 [ %43, %40 ], [ %36, %35 ]
  store i32 %.sink, ptr %32, align 8, !tbaa !28
  br label %44

44:                                               ; preds = %.sink.split, %37
  %45 = icmp slt i32 %.0, 65536
  br i1 %45, label %51, label %46

46:                                               ; preds = %44
  %47 = load i32, ptr %18, align 4, !tbaa !27
  %48 = add nsw i32 %47, 4
  store i32 %48, ptr %18, align 4, !tbaa !27
  store i32 %.0, ptr %2, align 8, !tbaa !39
  %49 = and i32 %.0, 1023
  %50 = or disjoint i32 %49, 56320
  br label %51

51:                                               ; preds = %17, %46, %44, %15
  %.030 = phi i32 [ %16, %15 ], [ %50, %46 ], [ %.0, %44 ], [ -1, %17 ]
  ret i32 %.030
}